; ModuleID = '22/108.c'
source_filename = "22/108.c"
target datalayout = "e-m:e-p270:32:32-p271:32:32-p272:64:64-i64:64-f80:128-n8:16:32:64-S128"
target triple = "x86_64-pc-linux-gnu"

@.str = private unnamed_addr constant [4 x i8] c"No\0A\00", align 1
@.str.1 = private unnamed_addr constant [3 x i8] c"%d\00", align 1

; Function Attrs: noinline nounwind uwtable
define dso_local void @main() #0 {
  %1 = alloca [300 x i32], align 16
  %2 = alloca i32, align 4
  %3 = alloca i32, align 4
  %4 = alloca i32, align 4
  %5 = alloca i32, align 4
  %6 = alloca [10 x i8], align 1
  store i32 0, i32* %2, align 4
  br label %7

7:                                                ; preds = %68, %0
  store i32 0, i32* %3, align 4
  br label %8

8:                                                ; preds = %29, %7
  %9 = call i32 @getchar()
  %10 = trunc i32 %9 to i8
  %11 = load i32, i32* %3, align 4
  %12 = sext i32 %11 to i64
  %13 = getelementptr inbounds [10 x i8], [10 x i8]* %6, i64 0, i64 %12
  store i8 %10, i8* %13, align 1
  %14 = load i32, i32* %3, align 4
  %15 = sext i32 %14 to i64
  %16 = getelementptr inbounds [10 x i8], [10 x i8]* %6, i64 0, i64 %15
  %17 = load i8, i8* %16, align 1
  %18 = sext i8 %17 to i32
  %19 = icmp eq i32 %18, 44
  br i1 %19, label %27, label %20

20:                                               ; preds = %8
  %21 = load i32, i32* %3, align 4
  %22 = sext i32 %21 to i64
  %23 = getelementptr inbounds [10 x i8], [10 x i8]* %6, i64 0, i64 %22
  %24 = load i8, i8* %23, align 1
  %25 = sext i8 %24 to i32
  %26 = icmp eq i32 %25, 10
  br i1 %26, label %27, label %28

27:                                               ; preds = %20, %8
  br label %32

28:                                               ; preds = %20
  br label %29

29:                                               ; preds = %28
  %30 = load i32, i32* %3, align 4
  %31 = add nsw i32 %30, 1
  store i32 %31, i32* %3, align 4
  br label %8

32:                                               ; preds = %27
  %33 = load i32, i32* %2, align 4
  %34 = sext i32 %33 to i64
  %35 = getelementptr inbounds [300 x i32], [300 x i32]* %1, i64 0, i64 %34
  store i32 0, i32* %35, align 4
  store i32 0, i32* %4, align 4
  br label %36

36:                                               ; preds = %56, %32
  %37 = load i32, i32* %4, align 4
  %38 = load i32, i32* %3, align 4
  %39 = icmp slt i32 %37, %38
  br i1 %39, label %40, label %59

40:                                               ; preds = %36
  %41 = load i32, i32* %2, align 4
  %42 = sext i32 %41 to i64
  %43 = getelementptr inbounds [300 x i32], [300 x i32]* %1, i64 0, i64 %42
  %44 = load i32, i32* %43, align 4
  %45 = mul nsw i32 10, %44
  %46 = load i32, i32* %4, align 4
  %47 = sext i32 %46 to i64
  %48 = getelementptr inbounds [10 x i8], [10 x i8]* %6, i64 0, i64 %47
  %49 = load i8, i8* %48, align 1
  %50 = sext i8 %49 to i32
  %51 = add nsw i32 %45, %50
  %52 = sub nsw i32 %51, 48
  %53 = load i32, i32* %2, align 4
  %54 = sext i32 %53 to i64
  %55 = getelementptr inbounds [300 x i32], [300 x i32]* %1, i64 0, i64 %54
  store i32 %52, i32* %55, align 4
  br label %56

56:                                               ; preds = %40
  %57 = load i32, i32* %4, align 4
  %58 = add nsw i32 %57, 1
  store i32 %58, i32* %4, align 4
  br label %36

59:                                               ; preds = %36
  %60 = load i32, i32* %3, align 4
  %61 = sext i32 %60 to i64
  %62 = getelementptr inbounds [10 x i8], [10 x i8]* %6, i64 0, i64 %61
  %63 = load i8, i8* %62, align 1
  %64 = sext i8 %63 to i32
  %65 = icmp eq i32 %64, 10
  br i1 %65, label %66, label %67

66:                                               ; preds = %59
  br label %71

67:                                               ; preds = %59
  br label %68

68:                                               ; preds = %67
  %69 = load i32, i32* %2, align 4
  %70 = add nsw i32 %69, 1
  store i32 %70, i32* %2, align 4
  br label %7

71:                                               ; preds = %66
  store i32 -1, i32* %5, align 4
  store i32 0, i32* %3, align 4
  br label %72

72:                                               ; preds = %89, %71
  %73 = load i32, i32* %3, align 4
  %74 = load i32, i32* %2, align 4
  %75 = icmp sle i32 %73, %74
  br i1 %75, label %76, label %92

76:                                               ; preds = %72
  %77 = load i32, i32* %3, align 4
  %78 = sext i32 %77 to i64
  %79 = getelementptr inbounds [300 x i32], [300 x i32]* %1, i64 0, i64 %78
  %80 = load i32, i32* %79, align 4
  %81 = load i32, i32* %5, align 4
  %82 = icmp sgt i32 %80, %81
  br i1 %82, label %83, label %88

83:                                               ; preds = %76
  %84 = load i32, i32* %3, align 4
  %85 = sext i32 %84 to i64
  %86 = getelementptr inbounds [300 x i32], [300 x i32]* %1, i64 0, i64 %85
  %87 = load i32, i32* %86, align 4
  store i32 %87, i32* %5, align 4
  br label %88

88:                                               ; preds = %83, %76
  br label %89

89:                                               ; preds = %88
  %90 = load i32, i32* %3, align 4
  %91 = add nsw i32 %90, 1
  store i32 %91, i32* %3, align 4
  br label %72

92:                                               ; preds = %72
  store i32 0, i32* %3, align 4
  br label %93

93:                                               ; preds = %109, %92
  %94 = load i32, i32* %3, align 4
  %95 = load i32, i32* %2, align 4
  %96 = icmp sle i32 %94, %95
  br i1 %96, label %97, label %112

97:                                               ; preds = %93
  %98 = load i32, i32* %3, align 4
  %99 = sext i32 %98 to i64
  %100 = getelementptr inbounds [300 x i32], [300 x i32]* %1, i64 0, i64 %99
  %101 = load i32, i32* %100, align 4
  %102 = load i32, i32* %5, align 4
  %103 = icmp eq i32 %101, %102
  br i1 %103, label %104, label %108

104:                                              ; preds = %97
  %105 = load i32, i32* %3, align 4
  %106 = sext i32 %105 to i64
  %107 = getelementptr inbounds [300 x i32], [300 x i32]* %1, i64 0, i64 %106
  store i32 -1, i32* %107, align 4
  br label %108

108:                                              ; preds = %104, %97
  br label %109

109:                                              ; preds = %108
  %110 = load i32, i32* %3, align 4
  %111 = add nsw i32 %110, 1
  store i32 %111, i32* %3, align 4
  br label %93

112:                                              ; preds = %93
  store i32 -1, i32* %5, align 4
  store i32 0, i32* %3, align 4
  br label %113

113:                                              ; preds = %130, %112
  %114 = load i32, i32* %3, align 4
  %115 = load i32, i32* %2, align 4
  %116 = icmp sle i32 %114, %115
  br i1 %116, label %117, label %133

117:                                              ; preds = %113
  %118 = load i32, i32* %3, align 4
  %119 = sext i32 %118 to i64
  %120 = getelementptr inbounds [300 x i32], [300 x i32]* %1, i64 0, i64 %119
  %121 = load i32, i32* %120, align 4
  %122 = load i32, i32* %5, align 4
  %123 = icmp sgt i32 %121, %122
  br i1 %123, label %124, label %129

124:                                              ; preds = %117
  %125 = load i32, i32* %3, align 4
  %126 = sext i32 %125 to i64
  %127 = getelementptr inbounds [300 x i32], [300 x i32]* %1, i64 0, i64 %126
  %128 = load i32, i32* %127, align 4
  store i32 %128, i32* %5, align 4
  br label %129

129:                                              ; preds = %124, %117
  br label %130

130:                                              ; preds = %129
  %131 = load i32, i32* %3, align 4
  %132 = add nsw i32 %131, 1
  store i32 %132, i32* %3, align 4
  br label %113

133:                                              ; preds = %113
  %134 = load i32, i32* %5, align 4
  %135 = icmp eq i32 %134, -1
  br i1 %135, label %136, label %138

136:                                              ; preds = %133
  %137 = call i32 (i8*, ...) @printf(i8* getelementptr inbounds ([4 x i8], [4 x i8]* @.str, i64 0, i64 0))
  br label %141

138:                                              ; preds = %133
  %139 = load i32, i32* %5, align 4
  %140 = call i32 (i8*, ...) @printf(i8* getelementptr inbounds ([3 x i8], [3 x i8]* @.str.1, i64 0, i64 0), i32 %139)
  br label %141

141:                                              ; preds = %138, %136
  ret void
}

declare dso_local i32 @getchar() #1

declare dso_local i32 @printf(i8*, ...) #1


!llvm.module.flags = !{!0}
!llvm.ident = !{!1}

!0 = !{i32 1, !"wchar_size", i32 4}
!1 = !{!"clang version 10.0.0-4ubuntu1 "}
